target datalayout = "e-m:e-p270:32:32-p271:32:32-p272:64:64-i64:64-i128:128-f80:128-n8:16:32:64-S128"
target triple = "x86_64-pc-linux-gnu"

%struct.t_ebin = type { i32, ptr, i64, i64, ptr, i64, i64, ptr }

; Function Attrs: mustprogress nounwind uwtable
define void @_Z19ebin_increase_countiP6t_ebinb(i32 noundef %0, ptr noundef %1, i1 noundef zeroext %2) #6 {
  %4 = alloca i32, align 4
  %5 = alloca ptr, align 8
  %6 = alloca i8, align 1
  store i32 %0, ptr %4, align 4, !tbaa !11
  store ptr %1, ptr %5, align 8, !tbaa !4
  %7 = zext i1 %2 to i8
  store i8 %7, ptr %6, align 1, !tbaa !48
  %8 = load i32, ptr %4, align 4, !tbaa !11
  %9 = sext i32 %8 to i64
  %10 = load ptr, ptr %5, align 8, !tbaa !4
  %11 = getelementptr inbounds nuw %struct.t_ebin, ptr %10, i32 0, i32 2
  %12 = load i64, ptr %11, align 8, !tbaa !125
  %13 = add nsw i64 %12, %9
  store i64 %13, ptr %11, align 8, !tbaa !125
  %14 = load i32, ptr %4, align 4, !tbaa !11
  %15 = sext i32 %14 to i64
  %16 = load ptr, ptr %5, align 8, !tbaa !4
  %17 = getelementptr inbounds nuw %struct.t_ebin, ptr %16, i32 0, i32 5
  %18 = load i64, ptr %17, align 8, !tbaa !126
  %19 = add nsw i64 %18, %15
  store i64 %19, ptr %17, align 8, !tbaa !126
  %20 = load i8, ptr %6, align 1, !tbaa !48, !range !52, !noundef !53
  %21 = trunc i8 %20 to i1
  br i1 %21, label %22, label %35

22:                                               ; preds = %3
  %23 = load i32, ptr %4, align 4, !tbaa !11
  %24 = sext i32 %23 to i64
  %25 = load ptr, ptr %5, align 8, !tbaa !4
  %26 = getelementptr inbounds nuw %struct.t_ebin, ptr %25, i32 0, i32 3
  %27 = load i64, ptr %26, align 8, !tbaa !54
  %28 = add nsw i64 %27, %24
  store i64 %28, ptr %26, align 8, !tbaa !54
  %29 = load i32, ptr %4, align 4, !tbaa !11
  %30 = sext i32 %29 to i64
  %31 = load ptr, ptr %5, align 8, !tbaa !4
  %32 = getelementptr inbounds nuw %struct.t_ebin, ptr %31, i32 0, i32 6
  %33 = load i64, ptr %32, align 8, !tbaa !127
  %34 = add nsw i64 %33, %30
  store i64 %34, ptr %32, align 8, !tbaa !127
  br label %35

35:                                               ; preds = %22, %3
  ret void
}