; Function Attrs: mustprogress nofree norecurse nosync nounwind willreturn memory(argmem: readwrite) uwtable
define void @_Z19ebin_increase_countiP6t_ebinb(i32 noundef %0, ptr noundef captures(none) %1, i1 noundef zeroext %2) local_unnamed_addr #11 {
  %4 = sext i32 %0 to i64
  %5 = getelementptr inbounds nuw i8, ptr %1, i64 16
  %6 = load i64, ptr %5, align 8, !tbaa !52
  %7 = add nsw i64 %6, %4
  store i64 %7, ptr %5, align 8, !tbaa !52
  %8 = getelementptr inbounds nuw i8, ptr %1, i64 40
  %9 = load i64, ptr %8, align 8, !tbaa !53
  %10 = add nsw i64 %9, %4
  store i64 %10, ptr %8, align 8, !tbaa !53
  br i1 %2, label %11, label %18

11:                                               ; preds = %3
  %12 = getelementptr inbounds nuw i8, ptr %1, i64 24
  %13 = load i64, ptr %12, align 8, !tbaa !34
  %14 = add nsw i64 %13, %4
  store i64 %14, ptr %12, align 8, !tbaa !34
  %15 = getelementptr inbounds nuw i8, ptr %1, i64 48
  %16 = load i64, ptr %15, align 8, !tbaa !54
  %17 = add nsw i64 %16, %4
  store i64 %17, ptr %15, align 8, !tbaa !54
  br label %18

18:                                               ; preds = %11, %3
  ret void
}